target datalayout = "e-m:e-p270:32:32-p271:32:32-p272:64:64-i64:64-i128:128-f80:128-n8:16:32:64-S128"
target triple = "x86_64-pc-linux-gnu"

%struct.rb_data_type_struct = type { ptr, %struct.anon, ptr, ptr, i64 }
%struct.anon = type { ptr, ptr, ptr, ptr, [1 x ptr] }

@ossl_evp_pkey_type = external constant %struct.rb_data_type_struct, align 8
@rb_eRuntimeError = external global i64, align 8
@.str.23 = private unnamed_addr constant [25 x i8] c"PKEY wasn't initialized!\00", align 1
@.str.24 = private unnamed_addr constant [19 x i8] c"THIS IS NOT A DSA!\00", align 1

; Function Attrs: nounwind sspstrong uwtable
define internal i64 @ossl_dsa_get_pub_key(i64 noundef %0) #0 {
  %2 = alloca i64, align 8
  %3 = alloca i64, align 8
  %4 = alloca ptr, align 8
  %5 = alloca ptr, align 8
  %6 = alloca ptr, align 8
  %7 = alloca i32, align 4
  store i64 %0, ptr %3, align 8, !tbaa !6
  call void @llvm.lifetime.start.p0(i64 8, ptr %4) #11
  call void @llvm.lifetime.start.p0(i64 8, ptr %5) #11
  br label %8

8:                                                ; preds = %1
  call void @llvm.lifetime.start.p0(i64 8, ptr %6) #11
  br label %9

9:                                                ; preds = %8
  br label %10

10:                                               ; preds = %9
  %11 = load i64, ptr %3, align 8, !tbaa !6
  %12 = call ptr @rb_check_typeddata(i64 noundef %11, ptr noundef @ossl_evp_pkey_type)
  store ptr %12, ptr %6, align 8, !tbaa !17
  %13 = load ptr, ptr %6, align 8, !tbaa !17
  %14 = icmp ne ptr %13, null
  br i1 %14, label %17, label %15

15:                                               ; preds = %10
  %16 = load i64, ptr @rb_eRuntimeError, align 8, !tbaa !6
  call void (i64, ptr, ...) @rb_raise(i64 noundef %16, ptr noundef @.str.23) #12
  unreachable

17:                                               ; preds = %10
  br label %18

18:                                               ; preds = %17
  br label %19

19:                                               ; preds = %18
  %20 = load ptr, ptr %6, align 8, !tbaa !17
  %21 = call i32 @EVP_PKEY_get_base_id(ptr noundef %20)
  %22 = icmp ne i32 %21, 116
  br i1 %22, label %23, label %25

23:                                               ; preds = %19
  %24 = load i64, ptr @rb_eRuntimeError, align 8, !tbaa !6
  call void (i64, ptr, ...) @ossl_raise(i64 noundef %24, ptr noundef @.str.24) #12
  unreachable

25:                                               ; preds = %19
  br label %26

26:                                               ; preds = %25
  br label %27

27:                                               ; preds = %26
  %28 = load ptr, ptr %6, align 8, !tbaa !17
  %29 = call ptr @EVP_PKEY_get0_DSA(ptr noundef %28)
  store ptr %29, ptr %4, align 8, !tbaa !19
  call void @llvm.lifetime.end.p0(i64 8, ptr %6) #11
  br label %30

30:                                               ; preds = %27
  br label %31

31:                                               ; preds = %30
  %32 = load ptr, ptr %4, align 8, !tbaa !19
  call void @DSA_get0_key(ptr noundef %32, ptr noundef %5, ptr noundef null)
  %33 = load ptr, ptr %5, align 8, !tbaa !25
  %34 = icmp eq ptr %33, null
  br i1 %34, label %35, label %36

35:                                               ; preds = %31
  store i64 4, ptr %2, align 8
  store i32 1, ptr %7, align 4
  br label %39

36:                                               ; preds = %31
  %37 = load ptr, ptr %5, align 8, !tbaa !25
  %38 = call i64 @ossl_bn_new(ptr noundef %37)
  store i64 %38, ptr %2, align 8
  store i32 1, ptr %7, align 4
  br label %39

39:                                               ; preds = %36, %35
  call void @llvm.lifetime.end.p0(i64 8, ptr %5) #11
  call void @llvm.lifetime.end.p0(i64 8, ptr %4) #11
  %40 = load i64, ptr %2, align 8
  ret i64 %40
}